target datalayout = "e-m:e-p270:32:32-p271:32:32-p272:64:64-i64:64-i128:128-f80:128-n8:16:32:64-S128"
target triple = "x86_64-pc-linux-gnu"

@.str.6 = private unnamed_addr constant [4 x i8] c"...\00", align 1

; Function Attrs: nounwind uwtable
define dso_local ptr @CopyLimitPrintoutLength(ptr noundef %0) #0 {
  %2 = alloca ptr, align 8
  %3 = alloca ptr, align 8
  %4 = alloca i32, align 4
  %5 = alloca i32, align 4
  %6 = alloca ptr, align 8
  %7 = alloca i32, align 4
  store ptr %0, ptr %3, align 8
  call void @llvm.lifetime.start.p0(i64 4, ptr %4) #11
  %8 = load ptr, ptr %3, align 8
  %9 = call i64 @strlen(ptr noundef %8) #12
  %10 = trunc i64 %9 to i32
  store i32 %10, ptr %4, align 4
  call void @llvm.lifetime.start.p0(i64 4, ptr %5) #11
  call void @llvm.lifetime.start.p0(i64 8, ptr %6) #11
  %11 = load i32, ptr %4, align 4
  %12 = icmp sle i32 %11, 100
  br i1 %12, label %13, label %16

13:                                               ; preds = %1
  %14 = load ptr, ptr %3, align 8
  %15 = call ptr @pstrdup(ptr noundef %14)
  store ptr %15, ptr %2, align 8
  store i32 1, ptr %7, align 4
  br label %34

16:                                               ; preds = %1
  %17 = load ptr, ptr %3, align 8
  %18 = load i32, ptr %4, align 4
  %19 = call i32 @pg_mbcliplen(ptr noundef %17, i32 noundef %18, i32 noundef 100)
  store i32 %19, ptr %5, align 4
  %20 = load i32, ptr %5, align 4
  %21 = add i32 %20, 4
  %22 = sext i32 %21 to i64
  %23 = call ptr @palloc(i64 noundef %22)
  store ptr %23, ptr %6, align 8
  %24 = load ptr, ptr %6, align 8
  %25 = load ptr, ptr %3, align 8
  %26 = load i32, ptr %5, align 4
  %27 = sext i32 %26 to i64
  call void @llvm.memcpy.p0.p0.i64(ptr align 1 %24, ptr align 1 %25, i64 %27, i1 false)
  %28 = load ptr, ptr %6, align 8
  %29 = load i32, ptr %5, align 4
  %30 = sext i32 %29 to i64
  %31 = getelementptr inbounds i8, ptr %28, i64 %30
  %32 = call ptr @strcpy(ptr noundef %31, ptr noundef @.str.6) #11
  %33 = load ptr, ptr %6, align 8
  store ptr %33, ptr %2, align 8
  store i32 1, ptr %7, align 4
  br label %34

34:                                               ; preds = %16, %13
  call void @llvm.lifetime.end.p0(i64 8, ptr %6) #11
  call void @llvm.lifetime.end.p0(i64 4, ptr %5) #11
  call void @llvm.lifetime.end.p0(i64 4, ptr %4) #11
  %35 = load ptr, ptr %2, align 8
  ret ptr %35
}