; Function Attrs: nounwind uwtable
define dso_local ptr @CopyLimitPrintoutLength(ptr noundef %0) local_unnamed_addr #0 {
  %2 = tail call i64 @strlen(ptr noundef nonnull dereferenceable(1) %0) #13
  %3 = trunc i64 %2 to i32
  %4 = icmp slt i32 %3, 101
  br i1 %4, label %5, label %7

5:                                                ; preds = %1
  %6 = tail call ptr @pstrdup(ptr noundef nonnull %0) #12
  br label %14

7:                                                ; preds = %1
  %8 = tail call i32 @pg_mbcliplen(ptr noundef nonnull %0, i32 noundef %3, i32 noundef 100) #12
  %9 = add i32 %8, 4
  %10 = sext i32 %9 to i64
  %11 = tail call ptr @palloc(i64 noundef %10) #12
  %12 = sext i32 %8 to i64
  tail call void @llvm.memcpy.p0.p0.i64(ptr align 1 %11, ptr nonnull align 1 %0, i64 %12, i1 false)
  %13 = getelementptr inbounds i8, ptr %11, i64 %12
  store i32 3026478, ptr %13, align 1
  br label %14

14:                                               ; preds = %7, %5
  %.0 = phi ptr [ %6, %5 ], [ %11, %7 ]
  ret ptr %.0
}